target datalayout = "e-m:e-p270:32:32-p271:32:32-p272:64:64-i64:64-i128:128-f80:128-n8:16:32:64-S128"
target triple = "x86_64-pc-linux-gnu"

%struct._zend_executor_globals = type { %struct._zval_struct, %struct._zval_struct, [32 x ptr], ptr, ptr, %struct._zend_array, %struct._zend_array, ptr, i32, i8, %struct._zval_struct, i32, ptr, ptr, ptr, ptr, ptr, ptr, i64, ptr, ptr, i32, ptr, i32, i64, i32, i32, i32, i8, i8, %struct.zend_atomic_bool_s, %struct.zend_atomic_bool_s, ptr, i64, ptr, ptr, %struct._zend_array, %struct._zend_array, i32, i8, %struct._zval_struct, %struct._zval_struct, %struct._zend_stack, %struct._zend_stack, %struct._zend_stack, ptr, i32, i32, i64, ptr, ptr, ptr, %struct._zend_objects_store, %struct._zend_lazy_objects_store, ptr, ptr, ptr, [3 x %struct._zend_op], ptr, i8, i8, i64, i32, i32, ptr, [16 x %struct._HashTableIterator], ptr, %union._zend_function, %struct._zend_op, %struct._zend_array, i64, %struct.zend_get_gc_buffer, ptr, ptr, ptr, i64, i8, i32, ptr, ptr, i64, %struct._zend_call_stack, i64, i64, %struct._zend_strtod_state, [6 x ptr] }
%struct.zend_atomic_bool_s = type { i8 }
%struct._zval_struct = type { %union._zend_value, %union.anon, %union.anon.2 }
%union._zend_value = type { i64 }
%union.anon = type { i32 }
%union.anon.2 = type { i32 }
%struct._zend_stack = type { i32, i32, i32, ptr }
%struct._zend_objects_store = type { ptr, i32, i32, i32 }
%struct._zend_lazy_objects_store = type { %struct._zend_array }
%struct._HashTableIterator = type { ptr, i32, i32 }
%union._zend_function = type { %struct._zend_op_array }
%struct._zend_op_array = type { i8, [3 x i8], i32, ptr, ptr, ptr, i32, i32, ptr, ptr, ptr, ptr, i32, ptr, i32, i32, i32, ptr, ptr, ptr, ptr, ptr, i32, i32, ptr, ptr, ptr, i32, i32, i32, i32, ptr, ptr, [6 x ptr] }
%struct._zend_op = type { ptr, %union._znode_op, %union._znode_op, %union._znode_op, i32, i32, i8, i8, i8, i8 }
%union._znode_op = type { i32 }
%struct._zend_array = type { %struct._zend_refcounted_h, %union.anon.4, i32, %union.anon.6, i32, i32, i32, i32, i64, ptr }
%struct._zend_refcounted_h = type { i32, %union.anon.3 }
%union.anon.3 = type { i32 }
%union.anon.4 = type { i32 }
%union.anon.6 = type { ptr }
%struct.zend_get_gc_buffer = type { ptr, ptr, ptr }
%struct._zend_call_stack = type { ptr, i64 }
%struct._zend_strtod_state = type { [8 x ptr], ptr, ptr }
%struct._zend_execute_data = type { ptr, ptr, ptr, ptr, %struct._zval_struct, ptr, ptr, ptr, ptr }
%struct._zend_object = type { %struct._zend_refcounted_h, i32, i32, ptr, ptr, ptr, [1 x %struct._zval_struct] }
%struct._zend_class_entry = type { i8, ptr, %union.anon.8, i32, i32, i32, i32, ptr, ptr, ptr, %struct._zend_array, %struct._zend_array, %struct._zend_array, ptr, ptr, ptr, ptr, ptr, ptr, ptr, ptr, ptr, ptr, ptr, ptr, ptr, ptr, ptr, ptr, ptr, ptr, ptr, %union.anon.9, ptr, ptr, ptr, ptr, i32, i32, i32, i32, %union.anon.10, ptr, ptr, ptr, ptr, i32, ptr, ptr, %union.anon.11 }
%union.anon.8 = type { ptr }
%union.anon.9 = type { ptr }
%union.anon.10 = type { ptr }
%union.anon.11 = type { %struct.anon.12 }
%struct.anon.12 = type { ptr, i32, i32 }
%struct.anon.0 = type { i8, i8, %union.anon.1 }
%union.anon.1 = type { i16 }
%struct._zend_string = type { %struct._zend_refcounted_h, i64, i64, [1 x i8] }
%struct.autoload_func_info = type { ptr, ptr, ptr, ptr }
%struct.anon.7 = type { i8, [3 x i8], i32, ptr, ptr, ptr, i32, i32, ptr, ptr, ptr, ptr, i32, ptr }
%struct._Bucket = type { %struct._zval_struct, i64, ptr }

@executor_globals = external global %struct._zend_executor_globals, align 8
@spl_autoload_functions = internal global ptr null, align 8

; Function Attrs: alwaysinline nounwind uwtable
define internal i32 @zval_gc_flags(i32 noundef %0) #4 {
  %2 = alloca i32, align 4
  store i32 %0, ptr %2, align 4, !tbaa !56
  %3 = load i32, ptr %2, align 4, !tbaa !56
  %4 = lshr i32 %3, 0
  %5 = and i32 %4, 1008
  ret i32 %5
}

; Function Attrs: alwaysinline nounwind uwtable
define internal i32 @add_next_index_zval(ptr noundef %0, ptr noundef %1) #4 {
  %3 = alloca ptr, align 8
  %4 = alloca ptr, align 8
  store ptr %0, ptr %3, align 8, !tbaa !9
  store ptr %1, ptr %4, align 8, !tbaa !9
  %5 = load ptr, ptr %3, align 8, !tbaa !9
  %6 = getelementptr inbounds nuw %struct._zval_struct, ptr %5, i32 0, i32 0
  %7 = load ptr, ptr %6, align 8, !tbaa !13
  %8 = load ptr, ptr %4, align 8, !tbaa !9
  %9 = call ptr @zend_hash_next_index_insert(ptr noundef %7, ptr noundef %8)
  %10 = icmp ne ptr %9, null
  %11 = select i1 %10, i32 0, i32 -1
  ret i32 %11
}

; Function Attrs: alwaysinline nounwind uwtable
define internal ptr @zend_string_copy(ptr noundef %0) #4 {
  %2 = alloca ptr, align 8
  store ptr %0, ptr %2, align 8, !tbaa !53
  %3 = load ptr, ptr %2, align 8, !tbaa !53
  %4 = getelementptr inbounds nuw %struct._zend_string, ptr %3, i32 0, i32 0
  %5 = getelementptr inbounds nuw %struct._zend_refcounted_h, ptr %4, i32 0, i32 1
  %6 = load i32, ptr %5, align 4, !tbaa !13
  %7 = call i32 @zval_gc_flags(i32 noundef %6)
  %8 = and i32 %7, 64
  %9 = icmp ne i32 %8, 0
  br i1 %9, label %14, label %10

10:                                               ; preds = %1
  %11 = load ptr, ptr %2, align 8, !tbaa !53
  %12 = getelementptr inbounds nuw %struct._zend_string, ptr %11, i32 0, i32 0
  %13 = call i32 @zend_gc_addref(ptr noundef %12)
  br label %14

14:                                               ; preds = %10, %1
  %15 = load ptr, ptr %2, align 8, !tbaa !53
  ret ptr %15
}

; Function Attrs: alwaysinline nounwind uwtable
define internal i32 @zend_gc_addref(ptr noundef %0) #4 {
  %2 = alloca ptr, align 8
  store ptr %0, ptr %2, align 8, !tbaa !117
  br label %3

3:                                                ; preds = %1
  br label %4

4:                                                ; preds = %3
  %5 = load ptr, ptr %2, align 8, !tbaa !117
  %6 = getelementptr inbounds nuw %struct._zend_refcounted_h, ptr %5, i32 0, i32 0
  %7 = load i32, ptr %6, align 4, !tbaa !119
  %8 = add i32 %7, 1
  store i32 %8, ptr %6, align 4, !tbaa !119
  ret i32 %8
}

; Function Attrs: alwaysinline nounwind uwtable
define internal zeroext i8 @zval_get_type(ptr noundef %0) #4 {
  %2 = alloca ptr, align 8
  store ptr %0, ptr %2, align 8, !tbaa !9
  %3 = load ptr, ptr %2, align 8, !tbaa !9
  %4 = getelementptr inbounds nuw %struct._zval_struct, ptr %3, i32 0, i32 1
  %5 = getelementptr inbounds nuw %struct.anon.0, ptr %4, i32 0, i32 0
  %6 = load i8, ptr %5, align 8, !tbaa !13
  ret i8 %6
}

; Function Attrs: nounwind uwtable
define hidden void @zif_spl_autoload_functions(ptr noundef %0, ptr noundef %1) #0 {
  %3 = alloca ptr, align 8
  %4 = alloca ptr, align 8
  %5 = alloca ptr, align 8
  %6 = alloca i32, align 4
  %7 = alloca ptr, align 8
  %8 = alloca ptr, align 8
  %9 = alloca ptr, align 8
  %10 = alloca ptr, align 8
  %11 = alloca ptr, align 8
  %12 = alloca ptr, align 8
  %13 = alloca %struct._zval_struct, align 8
  %14 = alloca ptr, align 8
  %15 = alloca ptr, align 8
  store ptr %0, ptr %3, align 8, !tbaa !4
  store ptr %1, ptr %4, align 8, !tbaa !9
  call void @llvm.lifetime.start.p0(i64 8, ptr %5) #12
  %16 = load ptr, ptr %3, align 8, !tbaa !4
  %17 = getelementptr inbounds nuw %struct._zend_execute_data, ptr %16, i32 0, i32 4
  %18 = getelementptr inbounds nuw %struct._zval_struct, ptr %17, i32 0, i32 2
  %19 = load i32, ptr %18, align 4, !tbaa !13
  %20 = icmp eq i32 %19, 0
  %21 = xor i1 %20, true
  %22 = xor i1 %21, true
  %23 = zext i1 %22 to i32
  %24 = sext i32 %23 to i64
  %25 = call i64 @llvm.expect.i64(i64 %24, i64 1)
  %26 = icmp ne i64 %25, 0
  br i1 %26, label %27, label %28

27:                                               ; preds = %2
  br label %29

28:                                               ; preds = %2
  call void @zend_wrong_parameters_none_error()
  br label %29

29:                                               ; preds = %28, %27
  %30 = phi i32 [ 0, %27 ], [ -1, %28 ]
  %31 = icmp eq i32 %30, -1
  br i1 %31, label %32, label %38

32:                                               ; preds = %29
  br label %33

33:                                               ; preds = %32
  %34 = load ptr, ptr getelementptr inbounds nuw (%struct._zend_executor_globals, ptr @executor_globals, i32 0, i32 54), align 8, !tbaa !14
  %35 = icmp ne ptr %34, null
  call void @llvm.assume(i1 %35)
  store i32 1, ptr %6, align 4
  br label %179

36:                                               ; No predecessors!
  br label %37

37:                                               ; preds = %36
  br label %38

38:                                               ; preds = %37, %29
  br label %39

39:                                               ; preds = %38
  call void @llvm.lifetime.start.p0(i64 8, ptr %7) #12
  %40 = call ptr @_zend_new_array_0()
  store ptr %40, ptr %7, align 8, !tbaa !52
  call void @llvm.lifetime.start.p0(i64 8, ptr %8) #12
  %41 = load ptr, ptr %4, align 8, !tbaa !9
  store ptr %41, ptr %8, align 8, !tbaa !9
  %42 = load ptr, ptr %7, align 8, !tbaa !52
  %43 = load ptr, ptr %8, align 8, !tbaa !9
  %44 = getelementptr inbounds nuw %struct._zval_struct, ptr %43, i32 0, i32 0
  store ptr %42, ptr %44, align 8, !tbaa !13
  %45 = load ptr, ptr %8, align 8, !tbaa !9
  %46 = getelementptr inbounds nuw %struct._zval_struct, ptr %45, i32 0, i32 1
  store i32 775, ptr %46, align 8, !tbaa !13
  call void @llvm.lifetime.end.p0(i64 8, ptr %8) #12
  call void @llvm.lifetime.end.p0(i64 8, ptr %7) #12
  br label %47

47:                                               ; preds = %39
  br label %48

48:                                               ; preds = %47
  %49 = load ptr, ptr @spl_autoload_functions, align 8, !tbaa !52
  %50 = icmp ne ptr %49, null
  br i1 %50, label %51, label %178

51:                                               ; preds = %48
  br label %52

52:                                               ; preds = %51
  call void @llvm.lifetime.start.p0(i64 8, ptr %9) #12
  %53 = load ptr, ptr @spl_autoload_functions, align 8, !tbaa !52
  store ptr %53, ptr %9, align 8, !tbaa !52
  call void @llvm.lifetime.start.p0(i64 8, ptr %10) #12
  %54 = load ptr, ptr %9, align 8, !tbaa !52
  %55 = getelementptr inbounds nuw %struct._zend_array, ptr %54, i32 0, i32 3
  %56 = load ptr, ptr %55, align 8, !tbaa !13
  %57 = getelementptr inbounds %struct._Bucket, ptr %56, i64 0
  store ptr %57, ptr %10, align 8, !tbaa !105
  call void @llvm.lifetime.start.p0(i64 8, ptr %11) #12
  %58 = load ptr, ptr %9, align 8, !tbaa !52
  %59 = getelementptr inbounds nuw %struct._zend_array, ptr %58, i32 0, i32 3
  %60 = load ptr, ptr %59, align 8, !tbaa !13
  %61 = load ptr, ptr %9, align 8, !tbaa !52
  %62 = getelementptr inbounds nuw %struct._zend_array, ptr %61, i32 0, i32 4
  %63 = load i32, ptr %62, align 8, !tbaa !93
  %64 = zext i32 %63 to i64
  %65 = getelementptr inbounds nuw %struct._Bucket, ptr %60, i64 %64
  store ptr %65, ptr %11, align 8, !tbaa !105
  %66 = load ptr, ptr %9, align 8, !tbaa !52
  %67 = getelementptr inbounds nuw %struct._zend_array, ptr %66, i32 0, i32 1
  %68 = load i32, ptr %67, align 8, !tbaa !13
  %69 = and i32 %68, 4
  %70 = icmp ne i32 %69, 0
  %71 = xor i1 %70, true
  call void @llvm.assume(i1 %71)
  br label %72

72:                                               ; preds = %172, %52
  %73 = load ptr, ptr %10, align 8, !tbaa !105
  %74 = load ptr, ptr %11, align 8, !tbaa !105
  %75 = icmp ne ptr %73, %74
  br i1 %75, label %76, label %175

76:                                               ; preds = %72
  call void @llvm.lifetime.start.p0(i64 8, ptr %12) #12
  %77 = load ptr, ptr %10, align 8, !tbaa !105
  %78 = getelementptr inbounds nuw %struct._Bucket, ptr %77, i32 0, i32 0
  store ptr %78, ptr %12, align 8, !tbaa !9
  %79 = load ptr, ptr %12, align 8, !tbaa !9
  %80 = call zeroext i8 @zval_get_type(ptr noundef %79)
  %81 = zext i8 %80 to i32
  %82 = icmp eq i32 %81, 0
  %83 = xor i1 %82, true
  %84 = xor i1 %83, true
  %85 = zext i1 %84 to i32
  %86 = sext i32 %85 to i64
  %87 = call i64 @llvm.expect.i64(i64 %86, i64 0)
  %88 = icmp ne i64 %87, 0
  br i1 %88, label %89, label %90

89:                                               ; preds = %76
  store i32 10, ptr %6, align 4
  br label %169

90:                                               ; preds = %76
  %91 = load ptr, ptr %12, align 8, !tbaa !9
  %92 = getelementptr inbounds nuw %struct._zval_struct, ptr %91, i32 0, i32 0
  %93 = load ptr, ptr %92, align 8, !tbaa !13
  store ptr %93, ptr %5, align 8, !tbaa !61
  %94 = load ptr, ptr %5, align 8, !tbaa !61
  %95 = getelementptr inbounds nuw %struct.autoload_func_info, ptr %94, i32 0, i32 2
  %96 = load ptr, ptr %95, align 8, !tbaa !91
  %97 = icmp ne ptr %96, null
  br i1 %97, label %98, label %109

98:                                               ; preds = %90
  %99 = load ptr, ptr %5, align 8, !tbaa !61
  %100 = getelementptr inbounds nuw %struct.autoload_func_info, ptr %99, i32 0, i32 2
  %101 = load ptr, ptr %100, align 8, !tbaa !91
  %102 = getelementptr inbounds nuw %struct._zend_object, ptr %101, i32 0, i32 0
  %103 = call i32 @zend_gc_addref(ptr noundef %102)
  %104 = load ptr, ptr %4, align 8, !tbaa !9
  %105 = load ptr, ptr %5, align 8, !tbaa !61
  %106 = getelementptr inbounds nuw %struct.autoload_func_info, ptr %105, i32 0, i32 2
  %107 = load ptr, ptr %106, align 8, !tbaa !91
  %108 = call i32 @add_next_index_object(ptr noundef %104, ptr noundef %107)
  br label %168

109:                                              ; preds = %90
  %110 = load ptr, ptr %5, align 8, !tbaa !61
  %111 = getelementptr inbounds nuw %struct.autoload_func_info, ptr %110, i32 0, i32 0
  %112 = load ptr, ptr %111, align 8, !tbaa !66
  %113 = getelementptr inbounds nuw %struct.anon.7, ptr %112, i32 0, i32 4
  %114 = load ptr, ptr %113, align 8, !tbaa !13
  %115 = icmp ne ptr %114, null
  br i1 %115, label %116, label %158

116:                                              ; preds = %109
  call void @llvm.lifetime.start.p0(i64 16, ptr %13) #12
  br label %117

117:                                              ; preds = %116
  call void @llvm.lifetime.start.p0(i64 8, ptr %14) #12
  %118 = call ptr @_zend_new_array_0()
  store ptr %118, ptr %14, align 8, !tbaa !52
  call void @llvm.lifetime.start.p0(i64 8, ptr %15) #12
  store ptr %13, ptr %15, align 8, !tbaa !9
  %119 = load ptr, ptr %14, align 8, !tbaa !52
  %120 = load ptr, ptr %15, align 8, !tbaa !9
  %121 = getelementptr inbounds nuw %struct._zval_struct, ptr %120, i32 0, i32 0
  store ptr %119, ptr %121, align 8, !tbaa !13
  %122 = load ptr, ptr %15, align 8, !tbaa !9
  %123 = getelementptr inbounds nuw %struct._zval_struct, ptr %122, i32 0, i32 1
  store i32 775, ptr %123, align 8, !tbaa !13
  call void @llvm.lifetime.end.p0(i64 8, ptr %15) #12
  call void @llvm.lifetime.end.p0(i64 8, ptr %14) #12
  br label %124

124:                                              ; preds = %117
  br label %125

125:                                              ; preds = %124
  %126 = load ptr, ptr %5, align 8, !tbaa !61
  %127 = getelementptr inbounds nuw %struct.autoload_func_info, ptr %126, i32 0, i32 1
  %128 = load ptr, ptr %127, align 8, !tbaa !70
  %129 = icmp ne ptr %128, null
  br i1 %129, label %130, label %140

130:                                              ; preds = %125
  %131 = load ptr, ptr %5, align 8, !tbaa !61
  %132 = getelementptr inbounds nuw %struct.autoload_func_info, ptr %131, i32 0, i32 1
  %133 = load ptr, ptr %132, align 8, !tbaa !70
  %134 = getelementptr inbounds nuw %struct._zend_object, ptr %133, i32 0, i32 0
  %135 = call i32 @zend_gc_addref(ptr noundef %134)
  %136 = load ptr, ptr %5, align 8, !tbaa !61
  %137 = getelementptr inbounds nuw %struct.autoload_func_info, ptr %136, i32 0, i32 1
  %138 = load ptr, ptr %137, align 8, !tbaa !70
  %139 = call i32 @add_next_index_object(ptr noundef %13, ptr noundef %138)
  br label %148

140:                                              ; preds = %125
  %141 = load ptr, ptr %5, align 8, !tbaa !61
  %142 = getelementptr inbounds nuw %struct.autoload_func_info, ptr %141, i32 0, i32 3
  %143 = load ptr, ptr %142, align 8, !tbaa !71
  %144 = getelementptr inbounds nuw %struct._zend_class_entry, ptr %143, i32 0, i32 1
  %145 = load ptr, ptr %144, align 8, !tbaa !107
  %146 = call ptr @zend_string_copy(ptr noundef %145)
  %147 = call i32 @add_next_index_str(ptr noundef %13, ptr noundef %146)
  br label %148

148:                                              ; preds = %140, %130
  %149 = load ptr, ptr %5, align 8, !tbaa !61
  %150 = getelementptr inbounds nuw %struct.autoload_func_info, ptr %149, i32 0, i32 0
  %151 = load ptr, ptr %150, align 8, !tbaa !66
  %152 = getelementptr inbounds nuw %struct.anon.7, ptr %151, i32 0, i32 3
  %153 = load ptr, ptr %152, align 8, !tbaa !13
  %154 = call ptr @zend_string_copy(ptr noundef %153)
  %155 = call i32 @add_next_index_str(ptr noundef %13, ptr noundef %154)
  %156 = load ptr, ptr %4, align 8, !tbaa !9
  %157 = call i32 @add_next_index_zval(ptr noundef %156, ptr noundef %13)
  call void @llvm.lifetime.end.p0(i64 16, ptr %13) #12
  br label %167

158:                                              ; preds = %109
  %159 = load ptr, ptr %4, align 8, !tbaa !9
  %160 = load ptr, ptr %5, align 8, !tbaa !61
  %161 = getelementptr inbounds nuw %struct.autoload_func_info, ptr %160, i32 0, i32 0
  %162 = load ptr, ptr %161, align 8, !tbaa !66
  %163 = getelementptr inbounds nuw %struct.anon.7, ptr %162, i32 0, i32 3
  %164 = load ptr, ptr %163, align 8, !tbaa !13
  %165 = call ptr @zend_string_copy(ptr noundef %164)
  %166 = call i32 @add_next_index_str(ptr noundef %159, ptr noundef %165)
  br label %167

167:                                              ; preds = %158, %148
  br label %168

168:                                              ; preds = %167, %98
  store i32 0, ptr %6, align 4
  br label %169

169:                                              ; preds = %168, %89
  call void @llvm.lifetime.end.p0(i64 8, ptr %12) #12
  %170 = load i32, ptr %6, align 4
  switch i32 %170, label %182 [
    i32 0, label %171
    i32 10, label %172
  ]

171:                                              ; preds = %169
  br label %172

172:                                              ; preds = %171, %169
  %173 = load ptr, ptr %10, align 8, !tbaa !105
  %174 = getelementptr inbounds nuw %struct._Bucket, ptr %173, i32 1
  store ptr %174, ptr %10, align 8, !tbaa !105
  br label %72

175:                                              ; preds = %72
  call void @llvm.lifetime.end.p0(i64 8, ptr %11) #12
  call void @llvm.lifetime.end.p0(i64 8, ptr %10) #12
  call void @llvm.lifetime.end.p0(i64 8, ptr %9) #12
  br label %176

176:                                              ; preds = %175
  br label %177

177:                                              ; preds = %176
  br label %178

178:                                              ; preds = %177, %48
  store i32 0, ptr %6, align 4
  br label %179

179:                                              ; preds = %178, %33
  call void @llvm.lifetime.end.p0(i64 8, ptr %5) #12
  %180 = load i32, ptr %6, align 4
  switch i32 %180, label %182 [
    i32 0, label %181
    i32 1, label %181
  ]

181:                                              ; preds = %179, %179
  ret void

182:                                              ; preds = %179, %169
  unreachable
}