; Function Attrs: nounwind uwtable
define hidden void @zif_spl_autoload_functions(ptr noundef readonly captures(none) %0, ptr noundef %1) #0 {
  %3 = alloca %struct._zval_struct, align 8
  %4 = getelementptr inbounds nuw i8, ptr %0, i64 44
  %5 = load i32, ptr %4, align 4, !tbaa !8
  %.not = icmp eq i32 %5, 0
  br i1 %.not, label %.critedge, label %6, !prof !52

6:                                                ; preds = %2
  tail call void @zend_wrong_parameters_none_error() #10
  %7 = load ptr, ptr getelementptr inbounds nuw (i8, ptr @executor_globals, i64 960), align 8, !tbaa !9
  %8 = icmp ne ptr %7, null
  tail call void @llvm.assume(i1 %8)
  br label %.loopexit

.critedge:                                        ; preds = %2
  %9 = tail call ptr @_zend_new_array_0() #10
  store ptr %9, ptr %1, align 8, !tbaa !8
  %10 = getelementptr inbounds nuw i8, ptr %1, i64 8
  store i32 775, ptr %10, align 8, !tbaa !8
  %11 = load ptr, ptr @spl_autoload_functions, align 8, !tbaa !62
  %.not34 = icmp eq ptr %11, null
  br i1 %.not34, label %.loopexit, label %12

12:                                               ; preds = %.critedge
  %13 = getelementptr inbounds nuw i8, ptr %11, i64 16
  %14 = load ptr, ptr %13, align 8, !tbaa !8
  %15 = getelementptr inbounds nuw i8, ptr %11, i64 24
  %16 = load i32, ptr %15, align 8, !tbaa !96
  %17 = zext i32 %16 to i64
  %18 = getelementptr inbounds nuw %struct._Bucket, ptr %14, i64 %17
  %19 = getelementptr inbounds nuw i8, ptr %11, i64 8
  %20 = load i32, ptr %19, align 8, !tbaa !8
  %21 = and i32 %20, 4
  %.not35 = icmp eq i32 %21, 0
  tail call void @llvm.assume(i1 %.not35)
  %.not3645 = icmp eq i32 %16, 0
  br i1 %.not3645, label %.loopexit, label %.lr.ph

.lr.ph:                                           ; preds = %12
  %22 = getelementptr inbounds nuw i8, ptr %3, i64 8
  br label %23

23:                                               ; preds = %.lr.ph, %82
  %.046 = phi ptr [ %14, %.lr.ph ], [ %83, %82 ]
  %24 = getelementptr inbounds nuw i8, ptr %.046, i64 8
  %25 = load i8, ptr %24, align 8, !tbaa !8
  %26 = icmp eq i8 %25, 0
  br i1 %26, label %82, label %27, !prof !84

27:                                               ; preds = %23
  %28 = load ptr, ptr %.046, align 8, !tbaa !8
  %29 = getelementptr inbounds nuw i8, ptr %28, i64 16
  %30 = load ptr, ptr %29, align 8, !tbaa !93
  %.not37 = icmp eq ptr %30, null
  br i1 %.not37, label %35, label %31

31:                                               ; preds = %27
  %32 = load i32, ptr %30, align 4, !tbaa !51
  %33 = add i32 %32, 1
  store i32 %33, ptr %30, align 4, !tbaa !51
  %34 = call i32 @add_next_index_object(ptr noundef nonnull %1, ptr noundef nonnull %30) #10
  br label %82

35:                                               ; preds = %27
  %36 = load ptr, ptr %28, align 8, !tbaa !63
  %37 = getelementptr inbounds nuw i8, ptr %36, i64 16
  %38 = load ptr, ptr %37, align 8, !tbaa !8
  %.not38 = icmp eq ptr %38, null
  br i1 %.not38, label %72, label %39

39:                                               ; preds = %35
  call void @llvm.lifetime.start.p0(i64 16, ptr nonnull %3) #10
  %40 = call ptr @_zend_new_array_0() #10
  store ptr %40, ptr %3, align 8, !tbaa !8
  store i32 775, ptr %22, align 8, !tbaa !8
  %41 = getelementptr inbounds nuw i8, ptr %28, i64 8
  %42 = load ptr, ptr %41, align 8, !tbaa !66
  %.not39 = icmp eq ptr %42, null
  br i1 %.not39, label %47, label %43

43:                                               ; preds = %39
  %44 = load i32, ptr %42, align 4, !tbaa !51
  %45 = add i32 %44, 1
  store i32 %45, ptr %42, align 4, !tbaa !51
  %46 = call i32 @add_next_index_object(ptr noundef nonnull %3, ptr noundef nonnull %42) #10
  br label %59

47:                                               ; preds = %39
  %48 = getelementptr inbounds nuw i8, ptr %28, i64 24
  %49 = load ptr, ptr %48, align 8, !tbaa !67
  %50 = getelementptr inbounds nuw i8, ptr %49, i64 8
  %51 = load ptr, ptr %50, align 8, !tbaa !100
  %52 = getelementptr inbounds nuw i8, ptr %51, i64 4
  %53 = load i32, ptr %52, align 4, !tbaa !8
  %54 = and i32 %53, 64
  %.not.i42 = icmp eq i32 %54, 0
  br i1 %.not.i42, label %55, label %zend_string_copy.exit43

55:                                               ; preds = %47
  %56 = load i32, ptr %51, align 4, !tbaa !51
  %57 = add i32 %56, 1
  store i32 %57, ptr %51, align 4, !tbaa !51
  br label %zend_string_copy.exit43

zend_string_copy.exit43:                          ; preds = %47, %55
  %58 = call i32 @add_next_index_str(ptr noundef nonnull %3, ptr noundef nonnull %51) #10
  br label %59

59:                                               ; preds = %zend_string_copy.exit43, %43
  %60 = load ptr, ptr %28, align 8, !tbaa !63
  %61 = getelementptr inbounds nuw i8, ptr %60, i64 8
  %62 = load ptr, ptr %61, align 8, !tbaa !8
  %63 = getelementptr inbounds nuw i8, ptr %62, i64 4
  %64 = load i32, ptr %63, align 4, !tbaa !8
  %65 = and i32 %64, 64
  %.not.i40 = icmp eq i32 %65, 0
  br i1 %.not.i40, label %66, label %zend_string_copy.exit41

66:                                               ; preds = %59
  %67 = load i32, ptr %62, align 4, !tbaa !51
  %68 = add i32 %67, 1
  store i32 %68, ptr %62, align 4, !tbaa !51
  br label %zend_string_copy.exit41

zend_string_copy.exit41:                          ; preds = %59, %66
  %69 = call i32 @add_next_index_str(ptr noundef nonnull %3, ptr noundef nonnull %62) #10
  %70 = load ptr, ptr %1, align 8, !tbaa !8
  %71 = call ptr @zend_hash_next_index_insert(ptr noundef %70, ptr noundef nonnull %3) #10
  call void @llvm.lifetime.end.p0(i64 16, ptr nonnull %3) #10
  br label %82

72:                                               ; preds = %35
  %73 = getelementptr inbounds nuw i8, ptr %36, i64 8
  %74 = load ptr, ptr %73, align 8, !tbaa !8
  %75 = getelementptr inbounds nuw i8, ptr %74, i64 4
  %76 = load i32, ptr %75, align 4, !tbaa !8
  %77 = and i32 %76, 64
  %.not.i = icmp eq i32 %77, 0
  br i1 %.not.i, label %78, label %zend_string_copy.exit

78:                                               ; preds = %72
  %79 = load i32, ptr %74, align 4, !tbaa !51
  %80 = add i32 %79, 1
  store i32 %80, ptr %74, align 4, !tbaa !51
  br label %zend_string_copy.exit

zend_string_copy.exit:                            ; preds = %72, %78
  %81 = call i32 @add_next_index_str(ptr noundef nonnull %1, ptr noundef nonnull %74) #10
  br label %82

82:                                               ; preds = %31, %zend_string_copy.exit, %zend_string_copy.exit41, %23
  %83 = getelementptr inbounds nuw i8, ptr %.046, i64 32
  %.not36 = icmp eq ptr %83, %18
  br i1 %.not36, label %.loopexit, label %23

.loopexit:                                        ; preds = %82, %12, %.critedge, %6
  ret void
}